target datalayout = "e-m:e-p270:32:32-p271:32:32-p272:64:64-i64:64-i128:128-f80:128-n8:16:32:64-S128"
target triple = "x86_64-unknown-linux-gnu"

%"class.std::__cxx11::basic_string" = type { %"struct.std::__cxx11::basic_string<char>::_Alloc_hider", i64, %union.anon }
%"struct.std::__cxx11::basic_string<char>::_Alloc_hider" = type { ptr }
%union.anon = type { i64, [8 x i8] }
%"struct.Imf_3_2::InputFile::Data" = type <{ %"class.std::mutex", %"class.Imf_3_2::Header", i32, i8, [3 x i8], ptr, ptr, ptr, i32, i32, i32, [4 x i8], %"class.Imf_3_2::FrameBuffer", ptr, ptr, i32, i32, i32, i32, ptr, i8, [7 x i8], ptr, ptr, i8, [7 x i8] }>
%"class.std::mutex" = type { %"class.std::__mutex_base" }
%"class.std::__mutex_base" = type { %union.pthread_mutex_t }
%union.pthread_mutex_t = type { %struct.__pthread_mutex_s }
%struct.__pthread_mutex_s = type { i32, i32, i32, i32, i32, i16, i16, %struct.__pthread_internal_list }
%struct.__pthread_internal_list = type { ptr, ptr }
%"class.Imf_3_2::Header" = type <{ %"class.std::map", i8, [7 x i8] }>
%"class.std::map" = type { %"class.std::_Rb_tree" }
%"class.std::_Rb_tree" = type { %"struct.std::_Rb_tree<Imf_3_2::Name, std::pair<const Imf_3_2::Name, Imf_3_2::Attribute *>, std::_Select1st<std::pair<const Imf_3_2::Name, Imf_3_2::Attribute *>>, std::less<Imf_3_2::Name>>::_Rb_tree_impl" }
%"struct.std::_Rb_tree<Imf_3_2::Name, std::pair<const Imf_3_2::Name, Imf_3_2::Attribute *>, std::_Select1st<std::pair<const Imf_3_2::Name, Imf_3_2::Attribute *>>, std::less<Imf_3_2::Name>>::_Rb_tree_impl" = type { %"struct.std::_Rb_tree_key_compare", %"struct.std::_Rb_tree_header" }
%"struct.std::_Rb_tree_key_compare" = type { %"struct.std::less" }
%"struct.std::less" = type { i8 }
%"struct.std::_Rb_tree_header" = type { %"struct.std::_Rb_tree_node_base", i64 }
%"struct.std::_Rb_tree_node_base" = type { i32, ptr, ptr, ptr }
%"class.Imf_3_2::FrameBuffer" = type { %"class.std::map.3" }
%"class.std::map.3" = type { %"class.std::_Rb_tree.4" }
%"class.std::_Rb_tree.4" = type { %"struct.std::_Rb_tree<Imf_3_2::Name, std::pair<const Imf_3_2::Name, Imf_3_2::Slice>, std::_Select1st<std::pair<const Imf_3_2::Name, Imf_3_2::Slice>>, std::less<Imf_3_2::Name>>::_Rb_tree_impl" }
%"struct.std::_Rb_tree<Imf_3_2::Name, std::pair<const Imf_3_2::Name, Imf_3_2::Slice>, std::_Select1st<std::pair<const Imf_3_2::Name, Imf_3_2::Slice>>, std::less<Imf_3_2::Name>>::_Rb_tree_impl" = type { %"struct.std::_Rb_tree_key_compare", %"struct.std::_Rb_tree_header" }
%"class.std::__cxx11::basic_stringstream" = type { %"class.std::basic_iostream.base", %"class.std::__cxx11::basic_stringbuf", %"class.std::basic_ios" }
%"class.std::basic_iostream.base" = type { %"class.std::basic_istream.base", %"class.std::basic_ostream.base" }
%"class.std::basic_istream.base" = type { ptr, i64 }
%"class.std::basic_ostream.base" = type { ptr }
%"class.std::__cxx11::basic_stringbuf" = type { %"class.std::basic_streambuf", i32, %"class.std::__cxx11::basic_string" }
%"class.std::basic_streambuf" = type { ptr, ptr, ptr, ptr, ptr, ptr, ptr, %"class.std::locale" }
%"class.std::locale" = type { ptr }
%"class.std::basic_ios" = type { %"class.std::ios_base", ptr, i8, i8, ptr, ptr, ptr, ptr }
%"class.std::ios_base" = type { ptr, i64, i64, i32, i32, i32, ptr, %"struct.std::ios_base::_Words", [8 x %"struct.std::ios_base::_Words"], i32, ptr, %"class.std::locale" }
%"struct.std::ios_base::_Words" = type { ptr, i64 }
%"class.Imf_3_2::InputFile" = type { %"class.Imf_3_2::GenericInputFile", ptr }
%"class.Imf_3_2::GenericInputFile" = type { ptr }
%"struct.Imf_3_2::InputStreamMutex" = type { %"class.std::mutex", ptr, i64 }

@_ZTIN7Iex_3_26ArgExcE = external constant ptr
@_ZTIN7Iex_3_27BaseExcE = external constant ptr
@.str.11 = private unnamed_addr constant [4 x i8] c"\22. \00", align 1
@.str.14 = private unnamed_addr constant [48 x i8] c"Tried to read a raw scanline from a deep image.\00", align 1
@.str.15 = private unnamed_addr constant [49 x i8] c"Tried to read a raw scanline from a tiled image.\00", align 1
@.str.16 = private unnamed_addr constant [43 x i8] c"Error reading pixel data from image file \22\00", align 1

; Function Attrs: mustprogress uwtable
define noundef ptr @_ZNK7Imf_3_29InputFile8fileNameEv(ptr noundef nonnull align 8 dereferenceable(16) %this) #4 align 2 {
entry:
  %this.addr = alloca ptr, align 8
  store ptr %this, ptr %this.addr, align 8
  %this1 = load ptr, ptr %this.addr, align 8
  %_data = getelementptr inbounds %"class.Imf_3_2::InputFile", ptr %this1, i32 0, i32 1
  %0 = load ptr, ptr %_data, align 8
  %_streamData = getelementptr inbounds %"struct.Imf_3_2::InputFile::Data", ptr %0, i32 0, i32 23
  %1 = load ptr, ptr %_streamData, align 8
  %is = getelementptr inbounds %"struct.Imf_3_2::InputStreamMutex", ptr %1, i32 0, i32 1
  %2 = load ptr, ptr %is, align 8
  %call = call noundef ptr @_ZNK7Imf_3_27IStream8fileNameEv(ptr noundef nonnull align 8 dereferenceable(40) %2)
  ret ptr %call
}

; Function Attrs: mustprogress uwtable
define void @_ZNK7Imf_3_29InputFile20rawPixelDataToBufferEiPcRi(ptr noundef nonnull align 8 dereferenceable(16) %this, i32 noundef %scanLine, ptr noundef %pixelData, ptr noundef nonnull align 4 dereferenceable(4) %pixelDataSize) #4 align 2 personality ptr @__gxx_personality_v0 {
entry:
  %this.addr = alloca ptr, align 8
  %scanLine.addr = alloca i32, align 4
  %pixelData.addr = alloca ptr, align 8
  %pixelDataSize.addr = alloca ptr, align 8
  %exn.slot = alloca ptr, align 8
  %ehselector.slot = alloca i32, align 4
  %e = alloca ptr, align 8
  %_iex_replace_s = alloca %"class.std::__cxx11::basic_stringstream", align 8
  store ptr %this, ptr %this.addr, align 8
  store i32 %scanLine, ptr %scanLine.addr, align 4
  store ptr %pixelData, ptr %pixelData.addr, align 8
  store ptr %pixelDataSize, ptr %pixelDataSize.addr, align 8
  %this1 = load ptr, ptr %this.addr, align 8
  %_data = getelementptr inbounds %"class.Imf_3_2::InputFile", ptr %this1, i32 0, i32 1
  %0 = load ptr, ptr %_data, align 8
  %dsFile = getelementptr inbounds %"struct.Imf_3_2::InputFile::Data", ptr %0, i32 0, i32 7
  %1 = load ptr, ptr %dsFile, align 8
  %tobool = icmp ne ptr %1, null
  br i1 %tobool, label %if.then, label %if.else

if.then:                                          ; preds = %entry
  %exception = call ptr @__cxa_allocate_exception(i64 72) #3
  invoke void @_ZN7Iex_3_26ArgExcC1EPKc(ptr noundef nonnull align 8 dereferenceable(72) %exception, ptr noundef @.str.14)
          to label %invoke.cont unwind label %lpad

invoke.cont:                                      ; preds = %if.then
  invoke void @__cxa_throw(ptr %exception, ptr @_ZTIN7Iex_3_26ArgExcE, ptr @_ZN7Iex_3_26ArgExcD1Ev) #15
          to label %unreachable unwind label %lpad2

lpad:                                             ; preds = %if.then
  %2 = landingpad { ptr, i32 }
          cleanup
          catch ptr @_ZTIN7Iex_3_27BaseExcE
  %3 = extractvalue { ptr, i32 } %2, 0
  store ptr %3, ptr %exn.slot, align 8
  %4 = extractvalue { ptr, i32 } %2, 1
  store i32 %4, ptr %ehselector.slot, align 4
  call void @__cxa_free_exception(ptr %exception) #3
  br label %catch.dispatch

lpad2:                                            ; preds = %if.end9, %invoke.cont8, %invoke.cont
  %5 = landingpad { ptr, i32 }
          catch ptr @_ZTIN7Iex_3_27BaseExcE
  %6 = extractvalue { ptr, i32 } %5, 0
  store ptr %6, ptr %exn.slot, align 8
  %7 = extractvalue { ptr, i32 } %5, 1
  store i32 %7, ptr %ehselector.slot, align 4
  br label %catch.dispatch

if.else:                                          ; preds = %entry
  %_data3 = getelementptr inbounds %"class.Imf_3_2::InputFile", ptr %this1, i32 0, i32 1
  %8 = load ptr, ptr %_data3, align 8
  %isTiled = getelementptr inbounds %"struct.Imf_3_2::InputFile::Data", ptr %8, i32 0, i32 3
  %9 = load i8, ptr %isTiled, align 4
  %tobool4 = trunc i8 %9 to i1
  br i1 %tobool4, label %if.then5, label %if.end

if.then5:                                         ; preds = %if.else
  %exception6 = call ptr @__cxa_allocate_exception(i64 72) #3
  invoke void @_ZN7Iex_3_26ArgExcC1EPKc(ptr noundef nonnull align 8 dereferenceable(72) %exception6, ptr noundef @.str.15)
          to label %invoke.cont8 unwind label %lpad7

invoke.cont8:                                     ; preds = %if.then5
  invoke void @__cxa_throw(ptr %exception6, ptr @_ZTIN7Iex_3_26ArgExcE, ptr @_ZN7Iex_3_26ArgExcD1Ev) #15
          to label %unreachable unwind label %lpad2

lpad7:                                            ; preds = %if.then5
  %10 = landingpad { ptr, i32 }
          cleanup
          catch ptr @_ZTIN7Iex_3_27BaseExcE
  %11 = extractvalue { ptr, i32 } %10, 0
  store ptr %11, ptr %exn.slot, align 8
  %12 = extractvalue { ptr, i32 } %10, 1
  store i32 %12, ptr %ehselector.slot, align 4
  call void @__cxa_free_exception(ptr %exception6) #3
  br label %catch.dispatch

catch.dispatch:                                   ; preds = %lpad7, %lpad2, %lpad
  %sel = load i32, ptr %ehselector.slot, align 4
  %13 = call i32 @llvm.eh.typeid.for(ptr @_ZTIN7Iex_3_27BaseExcE) #3
  %matches = icmp eq i32 %sel, %13
  br i1 %matches, label %catch, label %eh.resume

catch:                                            ; preds = %catch.dispatch
  %exn = load ptr, ptr %exn.slot, align 8
  %14 = call ptr @__cxa_begin_catch(ptr %exn) #3
  store ptr %14, ptr %e, align 8
  br label %do.body

do.body:                                          ; preds = %catch
  invoke void @_ZNSt7__cxx1118basic_stringstreamIcSt11char_traitsIcESaIcEEC1Ev(ptr noundef nonnull align 8 dereferenceable(128) %_iex_replace_s)
          to label %invoke.cont13 unwind label %lpad12

invoke.cont13:                                    ; preds = %do.body
  %add.ptr = getelementptr inbounds i8, ptr %_iex_replace_s, i64 16
  %call = invoke noundef nonnull align 8 dereferenceable(8) ptr @_ZStlsISt11char_traitsIcEERSt13basic_ostreamIcT_ES5_PKc(ptr noundef nonnull align 8 dereferenceable(8) %add.ptr, ptr noundef @.str.16)
          to label %invoke.cont15 unwind label %lpad14

invoke.cont15:                                    ; preds = %invoke.cont13
  %call17 = invoke noundef ptr @_ZNK7Imf_3_29InputFile8fileNameEv(ptr noundef nonnull align 8 dereferenceable(16) %this1)
          to label %invoke.cont16 unwind label %lpad14

invoke.cont16:                                    ; preds = %invoke.cont15
  %call19 = invoke noundef nonnull align 8 dereferenceable(8) ptr @_ZStlsISt11char_traitsIcEERSt13basic_ostreamIcT_ES5_PKc(ptr noundef nonnull align 8 dereferenceable(8) %call, ptr noundef %call17)
          to label %invoke.cont18 unwind label %lpad14

invoke.cont18:                                    ; preds = %invoke.cont16
  %call21 = invoke noundef nonnull align 8 dereferenceable(8) ptr @_ZStlsISt11char_traitsIcEERSt13basic_ostreamIcT_ES5_PKc(ptr noundef nonnull align 8 dereferenceable(8) %call19, ptr noundef @.str.11)
          to label %invoke.cont20 unwind label %lpad14

invoke.cont20:                                    ; preds = %invoke.cont18
  %15 = load ptr, ptr %e, align 8
  %vtable = load ptr, ptr %15, align 8
  %vfn = getelementptr inbounds ptr, ptr %vtable, i64 2
  %16 = load ptr, ptr %vfn, align 8
  %call22 = call noundef ptr %16(ptr noundef nonnull align 8 dereferenceable(72) %15) #3
  %call24 = invoke noundef nonnull align 8 dereferenceable(8) ptr @_ZStlsISt11char_traitsIcEERSt13basic_ostreamIcT_ES5_PKc(ptr noundef nonnull align 8 dereferenceable(8) %call21, ptr noundef %call22)
          to label %invoke.cont23 unwind label %lpad14

invoke.cont23:                                    ; preds = %invoke.cont20
  %17 = load ptr, ptr %e, align 8
  %call26 = invoke noundef nonnull align 8 dereferenceable(72) ptr @_ZN7Iex_3_27BaseExc6assignERNSt7__cxx1118basic_stringstreamIcSt11char_traitsIcESaIcEEE(ptr noundef nonnull align 8 dereferenceable(72) %17, ptr noundef nonnull align 8 dereferenceable(128) %_iex_replace_s)
          to label %invoke.cont25 unwind label %lpad14

invoke.cont25:                                    ; preds = %invoke.cont23
  call void @_ZNSt7__cxx1118basic_stringstreamIcSt11char_traitsIcESaIcEED1Ev(ptr noundef nonnull align 8 dereferenceable(128) %_iex_replace_s) #3
  br label %do.cond

do.cond:                                          ; preds = %invoke.cont25
  br label %do.end

do.end:                                           ; preds = %do.cond
  invoke void @__cxa_rethrow() #15
          to label %unreachable unwind label %lpad12

if.end:                                           ; preds = %if.else
  br label %if.end9

if.end9:                                          ; preds = %if.end
  %_data10 = getelementptr inbounds %"class.Imf_3_2::InputFile", ptr %this1, i32 0, i32 1
  %18 = load ptr, ptr %_data10, align 8
  %sFile = getelementptr inbounds %"struct.Imf_3_2::InputFile::Data", ptr %18, i32 0, i32 6
  %19 = load ptr, ptr %sFile, align 8
  %20 = load i32, ptr %scanLine.addr, align 4
  %21 = load ptr, ptr %pixelData.addr, align 8
  %22 = load ptr, ptr %pixelDataSize.addr, align 8
  invoke void @_ZNK7Imf_3_217ScanLineInputFile20rawPixelDataToBufferEiPcRi(ptr noundef nonnull align 8 dereferenceable(24) %19, i32 noundef %20, ptr noundef %21, ptr noundef nonnull align 4 dereferenceable(4) %22)
          to label %invoke.cont11 unwind label %lpad2

invoke.cont11:                                    ; preds = %if.end9
  br label %try.cont

lpad12:                                           ; preds = %do.end, %do.body
  %23 = landingpad { ptr, i32 }
          cleanup
  %24 = extractvalue { ptr, i32 } %23, 0
  store ptr %24, ptr %exn.slot, align 8
  %25 = extractvalue { ptr, i32 } %23, 1
  store i32 %25, ptr %ehselector.slot, align 4
  br label %ehcleanup

lpad14:                                           ; preds = %invoke.cont23, %invoke.cont20, %invoke.cont18, %invoke.cont16, %invoke.cont15, %invoke.cont13
  %26 = landingpad { ptr, i32 }
          cleanup
  %27 = extractvalue { ptr, i32 } %26, 0
  store ptr %27, ptr %exn.slot, align 8
  %28 = extractvalue { ptr, i32 } %26, 1
  store i32 %28, ptr %ehselector.slot, align 4
  call void @_ZNSt7__cxx1118basic_stringstreamIcSt11char_traitsIcESaIcEED1Ev(ptr noundef nonnull align 8 dereferenceable(128) %_iex_replace_s) #3
  br label %ehcleanup

ehcleanup:                                        ; preds = %lpad14, %lpad12
  invoke void @__cxa_end_catch()
          to label %invoke.cont27 unwind label %terminate.lpad

invoke.cont27:                                    ; preds = %ehcleanup
  br label %eh.resume

try.cont:                                         ; preds = %invoke.cont11
  ret void

eh.resume:                                        ; preds = %invoke.cont27, %catch.dispatch
  %exn28 = load ptr, ptr %exn.slot, align 8
  %sel29 = load i32, ptr %ehselector.slot, align 4
  %lpad.val = insertvalue { ptr, i32 } poison, ptr %exn28, 0
  %lpad.val30 = insertvalue { ptr, i32 } %lpad.val, i32 %sel29, 1
  resume { ptr, i32 } %lpad.val30

terminate.lpad:                                   ; preds = %ehcleanup
  %29 = landingpad { ptr, i32 }
          catch ptr null
  %30 = extractvalue { ptr, i32 } %29, 0
  call void @__clang_call_terminate(ptr %30) #16
  unreachable

unreachable:                                      ; preds = %do.end, %invoke.cont8, %invoke.cont
  unreachable
}